target datalayout = "e-m:e-p270:32:32-p271:32:32-p272:64:64-i64:64-i128:128-f80:128-n8:16:32:64-S128"
target triple = "x86_64-pc-linux-gnu"

%"class.doctest::String" = type { %union.anon }
%union.anon = type { %"struct.doctest::String::view", [8 x i8] }
%"struct.doctest::String::view" = type { ptr, i32, i32 }
%"class.Luau::AstExpr.base" = type { %"class.Luau::AstNode.base" }
%"class.Luau::AstNode.base" = type <{ ptr, i32, %"struct.Luau::Location" }>
%"struct.Luau::Location" = type { %"struct.Luau::Position", %"struct.Luau::Position" }
%"struct.Luau::Position" = type { i32, i32 }
%"struct.doctest::detail::ResultBuilder" = type { %"struct.doctest::AssertData" }
%"struct.doctest::AssertData" = type { ptr, i32, ptr, i32, ptr, i8, i8, %"class.doctest::String", %"class.doctest::String", i8, ptr, %"class.doctest::AssertData::StringContains" }
%"class.doctest::AssertData::StringContains" = type <{ %"class.doctest::Contains", i8, [7 x i8] }>
%"class.doctest::Contains" = type { %"class.doctest::String" }
%"class.std::__cxx11::basic_string" = type { %"struct.std::__cxx11::basic_string<char>::_Alloc_hider", i64, %union.anon.0 }
%"struct.std::__cxx11::basic_string<char>::_Alloc_hider" = type { ptr }
%union.anon.0 = type { i64, [8 x i8] }
%"struct.doctest::detail::Result" = type { i8, %"class.doctest::String" }
%"struct.doctest::detail::Expression_lhs" = type <{ %"class.std::__cxx11::basic_string", i32, [4 x i8] }>
%"struct.doctest::detail::ExpressionDecomposer" = type { i32 }
%"class.Luau::AstExprVarargs" = type { %"class.Luau::AstExpr.base", [4 x i8] }

@.str = private unnamed_addr constant [1 x i8] zeroinitializer, align 1
@.str.56 = private unnamed_addr constant [117 x i8] c"generated/home/dtcxzyw/WorkSpace/Projects/compilers/llvm-opt-benchmark/bench/luau/luau/tests/AstJsonEncoder.test.cpp\00", align 1
@.str.181 = private unnamed_addr constant [74 x i8] c"toJson(&varargs) == R\22({\22type\22:\22AstExprVarargs\22,\22location\22:\220,0 - 0,0\22})\22\00", align 1
@.str.182 = private unnamed_addr constant [49 x i8] c"{\22type\22:\22AstExprVarargs\22,\22location\22:\220,0 - 0,0\22}\00", align 1

; Function Attrs: mustprogress nounwind uwtable
define linkonce_odr dso_local void @_ZN7doctest6detail14Expression_lhsINSt7__cxx1112basic_stringIcSt11char_traitsIcESaIcEEEEC2EOS7_NS_10assertType4EnumE(ptr noundef nonnull align 8 dereferenceable(36) %0, ptr noundef nonnull align 8 dereferenceable(32) %1, i32 noundef %2) unnamed_addr #1 comdat align 2 {
  %4 = alloca ptr, align 8
  %5 = alloca ptr, align 8
  %6 = alloca i32, align 4
  store ptr %0, ptr %4, align 8
  store ptr %1, ptr %5, align 8
  store i32 %2, ptr %6, align 4
  %7 = load ptr, ptr %4, align 8
  %8 = getelementptr inbounds %"struct.doctest::detail::Expression_lhs", ptr %7, i32 0, i32 0
  %9 = load ptr, ptr %5, align 8
  call void @_ZNSt7__cxx1112basic_stringIcSt11char_traitsIcESaIcEEC1EOS4_(ptr noundef nonnull align 8 dereferenceable(32) %8, ptr noundef nonnull align 8 dereferenceable(32) %9) #10
  %10 = getelementptr inbounds %"struct.doctest::detail::Expression_lhs", ptr %7, i32 0, i32 1
  %11 = load i32, ptr %6, align 4
  store i32 %11, ptr %10, align 8
  ret void
}

; Function Attrs: mustprogress nounwind uwtable
define linkonce_odr dso_local void @_ZN4Luau8PositionC2Ejj(ptr noundef nonnull align 4 dereferenceable(8) %0, i32 noundef %1, i32 noundef %2) unnamed_addr #1 comdat align 2 {
  %4 = alloca ptr, align 8
  %5 = alloca i32, align 4
  %6 = alloca i32, align 4
  store ptr %0, ptr %4, align 8
  store i32 %1, ptr %5, align 4
  store i32 %2, ptr %6, align 4
  %7 = load ptr, ptr %4, align 8
  %8 = getelementptr inbounds %"struct.Luau::Position", ptr %7, i32 0, i32 0
  %9 = load i32, ptr %5, align 4
  store i32 %9, ptr %8, align 4
  %10 = getelementptr inbounds %"struct.Luau::Position", ptr %7, i32 0, i32 1
  %11 = load i32, ptr %6, align 4
  store i32 %11, ptr %10, align 4
  ret void
}

; Function Attrs: mustprogress nounwind uwtable
define linkonce_odr dso_local void @_ZN7doctest6detail14Expression_lhsINSt7__cxx1112basic_stringIcSt11char_traitsIcESaIcEEEED2Ev(ptr noundef nonnull align 8 dereferenceable(36) %0) unnamed_addr #1 comdat align 2 {
  %2 = alloca ptr, align 8
  store ptr %0, ptr %2, align 8
  %3 = load ptr, ptr %2, align 8
  %4 = getelementptr inbounds %"struct.doctest::detail::Expression_lhs", ptr %3, i32 0, i32 0
  call void @_ZNSt7__cxx1112basic_stringIcSt11char_traitsIcESaIcEED1Ev(ptr noundef nonnull align 8 dereferenceable(32) %4) #10
  ret void
}

; Function Attrs: mustprogress nounwind uwtable
define linkonce_odr dso_local void @_ZN7doctest6detail6ResultD2Ev(ptr noundef nonnull align 8 dereferenceable(32) %0) unnamed_addr #1 comdat align 2 {
  %2 = alloca ptr, align 8
  store ptr %0, ptr %2, align 8
  %3 = load ptr, ptr %2, align 8
  %4 = getelementptr inbounds %"struct.doctest::detail::Result", ptr %3, i32 0, i32 1
  call void @_ZN7doctest6StringD1Ev(ptr noundef nonnull align 8 dereferenceable(24) %4) #10
  ret void
}

; Function Attrs: mustprogress uwtable
define linkonce_odr dso_local void @_ZN7doctest6detail20ExpressionDecomposerlsINSt7__cxx1112basic_stringIcSt11char_traitsIcESaIcEEEEENS0_14Expression_lhsIT_EEOSA_(ptr dead_on_unwind noalias writable sret(%"struct.doctest::detail::Expression_lhs") align 8 %0, ptr noundef nonnull align 4 dereferenceable(4) %1, ptr noundef nonnull align 8 dereferenceable(32) %2) #4 comdat align 2 {
  %4 = alloca ptr, align 8
  %5 = alloca ptr, align 8
  %6 = alloca ptr, align 8
  store ptr %0, ptr %4, align 8
  store ptr %1, ptr %5, align 8
  store ptr %2, ptr %6, align 8
  %7 = load ptr, ptr %5, align 8
  %8 = load ptr, ptr %6, align 8
  %9 = getelementptr inbounds %"struct.doctest::detail::ExpressionDecomposer", ptr %7, i32 0, i32 0
  %10 = load i32, ptr %9, align 4
  call void @_ZN7doctest6detail14Expression_lhsINSt7__cxx1112basic_stringIcSt11char_traitsIcESaIcEEEEC2EOS7_NS_10assertType4EnumE(ptr noundef nonnull align 8 dereferenceable(36) %0, ptr noundef nonnull align 8 dereferenceable(32) %8, i32 noundef %10)
  ret void
}

; Function Attrs: mustprogress uwtable
define linkonce_odr dso_local void @_ZN4Luau8LocationC2Ev(ptr noundef nonnull align 4 dereferenceable(16) %0) unnamed_addr #4 comdat align 2 {
  %2 = alloca ptr, align 8
  store ptr %0, ptr %2, align 8
  %3 = load ptr, ptr %2, align 8
  %4 = getelementptr inbounds %"struct.Luau::Location", ptr %3, i32 0, i32 0
  call void @_ZN4Luau8PositionC2Ejj(ptr noundef nonnull align 4 dereferenceable(8) %4, i32 noundef 0, i32 noundef 0)
  %5 = getelementptr inbounds %"struct.Luau::Location", ptr %3, i32 0, i32 1
  call void @_ZN4Luau8PositionC2Ejj(ptr noundef nonnull align 4 dereferenceable(8) %5, i32 noundef 0, i32 noundef 0)
  ret void
}

; Function Attrs: mustprogress uwtable
define internal void @_ZL20DOCTEST_ANON_FUNC_30v() #4 personality ptr @__gxx_personality_v0 {
  %1 = alloca %"class.Luau::AstExprVarargs", align 8
  %2 = alloca %"struct.Luau::Location", align 4
  %3 = alloca %"struct.doctest::detail::ResultBuilder", align 8
  %4 = alloca %"class.doctest::String", align 8
  %5 = alloca ptr, align 8
  %6 = alloca i32, align 4
  %7 = alloca %"struct.doctest::detail::Result", align 8
  %8 = alloca %"struct.doctest::detail::Expression_lhs", align 8
  %9 = alloca %"struct.doctest::detail::ExpressionDecomposer", align 4
  %10 = alloca %"class.std::__cxx11::basic_string", align 8
  call void @_ZN4Luau8LocationC2Ev(ptr noundef nonnull align 4 dereferenceable(16) %2)
  call void @_ZN4Luau14AstExprVarargsC1ERKNS_8LocationE(ptr noundef nonnull align 8 dereferenceable(28) %1, ptr noundef nonnull align 4 dereferenceable(16) %2)
  br label %11

11:                                               ; preds = %0
  call void @_ZN7doctest6StringC1EPKc(ptr noundef nonnull align 8 dereferenceable(24) %4, ptr noundef @.str)
  invoke void @_ZN7doctest6detail13ResultBuilderC1ENS_10assertType4EnumEPKciS5_S5_RKNS_6StringE(ptr noundef nonnull align 8 dereferenceable(144) %3, i32 noundef 10, ptr noundef @.str.56, i32 noundef 209, ptr noundef @.str.181, ptr noundef @.str, ptr noundef nonnull align 8 dereferenceable(24) %4)
          to label %12 unwind label %18

12:                                               ; preds = %11
  call void @_ZN7doctest6StringD1Ev(ptr noundef nonnull align 8 dereferenceable(24) %4) #10
  invoke void @_ZN7doctest6detail20ExpressionDecomposerC1ENS_10assertType4EnumE(ptr noundef nonnull align 4 dereferenceable(4) %9, i32 noundef 10)
          to label %13 unwind label %22

13:                                               ; preds = %12
  invoke void @_ZN4Luau6toJsonB5cxx11EPNS_7AstNodeE(ptr dead_on_unwind writable sret(%"class.std::__cxx11::basic_string") align 8 %10, ptr noundef %1)
          to label %14 unwind label %22

14:                                               ; preds = %13
  invoke void @_ZN7doctest6detail20ExpressionDecomposerlsINSt7__cxx1112basic_stringIcSt11char_traitsIcESaIcEEEEENS0_14Expression_lhsIT_EEOSA_(ptr dead_on_unwind writable sret(%"struct.doctest::detail::Expression_lhs") align 8 %8, ptr noundef nonnull align 4 dereferenceable(4) %9, ptr noundef nonnull align 8 dereferenceable(32) %10)
          to label %15 unwind label %26

15:                                               ; preds = %14
  invoke void @_ZN7doctest6detail14Expression_lhsINSt7__cxx1112basic_stringIcSt11char_traitsIcESaIcEEEEeqIRA49_KcEEDTcmcvveqclL_ZNS0_7declvalIS7_EEOT_vEEclsr7doctest6detailE7declvalISE_EEtlNS0_6ResultEEESF_(ptr dead_on_unwind writable sret(%"struct.doctest::detail::Result") align 8 %7, ptr noundef nonnull align 8 dereferenceable(36) %8, ptr noundef nonnull align 1 dereferenceable(49) @.str.182)
          to label %16 unwind label %30

16:                                               ; preds = %15
  invoke void @_ZN7doctest6detail13ResultBuilder9setResultERKNS0_6ResultE(ptr noundef nonnull align 8 dereferenceable(144) %3, ptr noundef nonnull align 8 dereferenceable(32) %7)
          to label %17 unwind label %34

17:                                               ; preds = %16
  call void @_ZN7doctest6detail6ResultD2Ev(ptr noundef nonnull align 8 dereferenceable(32) %7) #10
  call void @_ZN7doctest6detail14Expression_lhsINSt7__cxx1112basic_stringIcSt11char_traitsIcESaIcEEEED2Ev(ptr noundef nonnull align 8 dereferenceable(36) %8) #10
  call void @_ZNSt7__cxx1112basic_stringIcSt11char_traitsIcESaIcEED1Ev(ptr noundef nonnull align 8 dereferenceable(32) %10) #10
  br label %45

18:                                               ; preds = %11
  %19 = landingpad { ptr, i32 }
          cleanup
  %20 = extractvalue { ptr, i32 } %19, 0
  store ptr %20, ptr %5, align 8
  %21 = extractvalue { ptr, i32 } %19, 1
  store i32 %21, ptr %6, align 4
  call void @_ZN7doctest6StringD1Ev(ptr noundef nonnull align 8 dereferenceable(24) %4) #10
  br label %62

22:                                               ; preds = %13, %12
  %23 = landingpad { ptr, i32 }
          catch ptr null
  %24 = extractvalue { ptr, i32 } %23, 0
  store ptr %24, ptr %5, align 8
  %25 = extractvalue { ptr, i32 } %23, 1
  store i32 %25, ptr %6, align 4
  br label %40

26:                                               ; preds = %14
  %27 = landingpad { ptr, i32 }
          catch ptr null
  %28 = extractvalue { ptr, i32 } %27, 0
  store ptr %28, ptr %5, align 8
  %29 = extractvalue { ptr, i32 } %27, 1
  store i32 %29, ptr %6, align 4
  br label %39

30:                                               ; preds = %15
  %31 = landingpad { ptr, i32 }
          catch ptr null
  %32 = extractvalue { ptr, i32 } %31, 0
  store ptr %32, ptr %5, align 8
  %33 = extractvalue { ptr, i32 } %31, 1
  store i32 %33, ptr %6, align 4
  br label %38

34:                                               ; preds = %16
  %35 = landingpad { ptr, i32 }
          catch ptr null
  %36 = extractvalue { ptr, i32 } %35, 0
  store ptr %36, ptr %5, align 8
  %37 = extractvalue { ptr, i32 } %35, 1
  store i32 %37, ptr %6, align 4
  call void @_ZN7doctest6detail6ResultD2Ev(ptr noundef nonnull align 8 dereferenceable(32) %7) #10
  br label %38

38:                                               ; preds = %34, %30
  call void @_ZN7doctest6detail14Expression_lhsINSt7__cxx1112basic_stringIcSt11char_traitsIcESaIcEEEED2Ev(ptr noundef nonnull align 8 dereferenceable(36) %8) #10
  br label %39

39:                                               ; preds = %38, %26
  call void @_ZNSt7__cxx1112basic_stringIcSt11char_traitsIcESaIcEED1Ev(ptr noundef nonnull align 8 dereferenceable(32) %10) #10
  br label %40

40:                                               ; preds = %39, %22
  %41 = load ptr, ptr %5, align 8
  %42 = call ptr @__cxa_begin_catch(ptr %41) #10
  invoke void @_ZN7doctest6detail13ResultBuilder18translateExceptionEv(ptr noundef nonnull align 8 dereferenceable(144) %3)
          to label %43 unwind label %49

43:                                               ; preds = %40
  invoke void @__cxa_end_catch()
          to label %44 unwind label %53

44:                                               ; preds = %43
  br label %45

45:                                               ; preds = %44, %17
  %46 = invoke noundef zeroext i1 @_ZN7doctest6detail13ResultBuilder3logEv(ptr noundef nonnull align 8 dereferenceable(144) %3)
          to label %47 unwind label %53

47:                                               ; preds = %45
  br i1 %46, label %48, label %58

48:                                               ; preds = %47
  call void asm sideeffect "int $$3\0A", "~{dirflag},~{fpsr},~{flags}"() #10, !srcloc !18
  br label %58

49:                                               ; preds = %40
  %50 = landingpad { ptr, i32 }
          cleanup
  %51 = extractvalue { ptr, i32 } %50, 0
  store ptr %51, ptr %5, align 8
  %52 = extractvalue { ptr, i32 } %50, 1
  store i32 %52, ptr %6, align 4
  invoke void @__cxa_end_catch()
          to label %57 unwind label %67

53:                                               ; preds = %58, %45, %43
  %54 = landingpad { ptr, i32 }
          cleanup
  %55 = extractvalue { ptr, i32 } %54, 0
  store ptr %55, ptr %5, align 8
  %56 = extractvalue { ptr, i32 } %54, 1
  store i32 %56, ptr %6, align 4
  br label %61

57:                                               ; preds = %49
  br label %61

58:                                               ; preds = %48, %47
  invoke void @_ZNK7doctest6detail13ResultBuilder5reactEv(ptr noundef nonnull align 8 dereferenceable(144) %3)
          to label %59 unwind label %53

59:                                               ; preds = %58
  call void @_ZN7doctest6detail13ResultBuilderD2Ev(ptr noundef nonnull align 8 dereferenceable(144) %3) #10
  br label %60

60:                                               ; preds = %59
  ret void

61:                                               ; preds = %57, %53
  call void @_ZN7doctest6detail13ResultBuilderD2Ev(ptr noundef nonnull align 8 dereferenceable(144) %3) #10
  br label %62

62:                                               ; preds = %61, %18
  %63 = load ptr, ptr %5, align 8
  %64 = load i32, ptr %6, align 4
  %65 = insertvalue { ptr, i32 } poison, ptr %63, 0
  %66 = insertvalue { ptr, i32 } %65, i32 %64, 1
  resume { ptr, i32 } %66

67:                                               ; preds = %49
  %68 = landingpad { ptr, i32 }
          catch ptr null
  %69 = extractvalue { ptr, i32 } %68, 0
  call void @__clang_call_terminate(ptr %69) #11
  unreachable
}