; Function Attrs: mustprogress uwtable
define internal void @_ZL20DOCTEST_ANON_FUNC_30v() #3 personality ptr @__gxx_personality_v0 {
  %1 = alloca %"class.Luau::AstExprVarargs", align 8
  %2 = alloca %"struct.Luau::Location", align 4
  %3 = alloca %"struct.doctest::detail::ResultBuilder", align 8
  %4 = alloca %"class.doctest::String", align 8
  %5 = alloca %"struct.doctest::detail::Result", align 8
  %6 = alloca %"struct.doctest::detail::Expression_lhs", align 8
  %7 = alloca %"struct.doctest::detail::ExpressionDecomposer", align 4
  %8 = alloca %"class.std::__cxx11::basic_string", align 8
  call void @llvm.memset.p0.i64(ptr noundef nonnull align 4 dereferenceable(16) %2, i8 0, i64 16, i1 false)
  call void @_ZN4Luau14AstExprVarargsC1ERKNS_8LocationE(ptr noundef nonnull align 8 dereferenceable(28) %1, ptr noundef nonnull align 4 dereferenceable(16) %2)
  call void @_ZN7doctest6StringC1EPKc(ptr noundef nonnull align 8 dereferenceable(24) %4, ptr noundef nonnull @.str)
  invoke void @_ZN7doctest6detail13ResultBuilderC1ENS_10assertType4EnumEPKciS5_S5_RKNS_6StringE(ptr noundef nonnull align 8 dereferenceable(144) %3, i32 noundef 10, ptr noundef nonnull @.str.56, i32 noundef 209, ptr noundef nonnull @.str.181, ptr noundef nonnull @.str, ptr noundef nonnull align 8 dereferenceable(24) %4)
          to label %9 unwind label %17

9:                                                ; preds = %0
  call void @_ZN7doctest6StringD1Ev(ptr noundef nonnull align 8 dereferenceable(24) %4) #12
  invoke void @_ZN7doctest6detail20ExpressionDecomposerC1ENS_10assertType4EnumE(ptr noundef nonnull align 4 dereferenceable(4) %7, i32 noundef 10)
          to label %10 unwind label %19

10:                                               ; preds = %9
  invoke void @_ZN4Luau6toJsonB5cxx11EPNS_7AstNodeE(ptr dead_on_unwind nonnull writable sret(%"class.std::__cxx11::basic_string") align 8 %8, ptr noundef nonnull %1)
          to label %11 unwind label %19

11:                                               ; preds = %10
  call void @llvm.experimental.noalias.scope.decl(metadata !35)
  %12 = load i32, ptr %7, align 4, !noalias !35
  call void @_ZNSt7__cxx1112basic_stringIcSt11char_traitsIcESaIcEEC1EOS4_(ptr noundef nonnull align 8 dereferenceable(32) %6, ptr noundef nonnull align 8 dereferenceable(32) %8) #12
  %13 = getelementptr inbounds i8, ptr %6, i64 32
  store i32 %12, ptr %13, align 8, !alias.scope !35
  invoke void @_ZN7doctest6detail14Expression_lhsINSt7__cxx1112basic_stringIcSt11char_traitsIcESaIcEEEEeqIRA49_KcEEDTcmcvveqclL_ZNS0_7declvalIS7_EEOT_vEEclsr7doctest6detailE7declvalISE_EEtlNS0_6ResultEEESF_(ptr dead_on_unwind nonnull writable sret(%"struct.doctest::detail::Result") align 8 %5, ptr noundef nonnull align 8 dereferenceable(36) %6, ptr noundef nonnull align 1 dereferenceable(49) @.str.182)
          to label %14 unwind label %21

14:                                               ; preds = %11
  invoke void @_ZN7doctest6detail13ResultBuilder9setResultERKNS0_6ResultE(ptr noundef nonnull align 8 dereferenceable(144) %3, ptr noundef nonnull align 8 dereferenceable(32) %5)
          to label %15 unwind label %23

15:                                               ; preds = %14
  %16 = getelementptr inbounds i8, ptr %5, i64 8
  call void @_ZN7doctest6StringD1Ev(ptr noundef nonnull align 8 dereferenceable(24) %16) #12
  call void @_ZNSt7__cxx1112basic_stringIcSt11char_traitsIcESaIcEED1Ev(ptr noundef nonnull align 8 dereferenceable(32) %6) #12
  call void @_ZNSt7__cxx1112basic_stringIcSt11char_traitsIcESaIcEED1Ev(ptr noundef nonnull align 8 dereferenceable(32) %8) #12
  br label %30

17:                                               ; preds = %0
  %18 = landingpad { ptr, i32 }
          cleanup
  call void @_ZN7doctest6StringD1Ev(ptr noundef nonnull align 8 dereferenceable(24) %4) #12
  br label %44

19:                                               ; preds = %10, %9
  %20 = landingpad { ptr, i32 }
          catch ptr null
  br label %27

21:                                               ; preds = %11
  %22 = landingpad { ptr, i32 }
          catch ptr null
  br label %26

23:                                               ; preds = %14
  %24 = landingpad { ptr, i32 }
          catch ptr null
  %25 = getelementptr inbounds i8, ptr %5, i64 8
  call void @_ZN7doctest6StringD1Ev(ptr noundef nonnull align 8 dereferenceable(24) %25) #12
  br label %26

26:                                               ; preds = %23, %21
  %.pn = phi { ptr, i32 } [ %24, %23 ], [ %22, %21 ]
  call void @_ZNSt7__cxx1112basic_stringIcSt11char_traitsIcESaIcEED1Ev(ptr noundef nonnull align 8 dereferenceable(32) %6) #12
  call void @_ZNSt7__cxx1112basic_stringIcSt11char_traitsIcESaIcEED1Ev(ptr noundef nonnull align 8 dereferenceable(32) %8) #12
  br label %27

27:                                               ; preds = %26, %19
  %.pn.pn.pn = phi { ptr, i32 } [ %.pn, %26 ], [ %20, %19 ]
  %.2 = extractvalue { ptr, i32 } %.pn.pn.pn, 0
  %28 = call ptr @__cxa_begin_catch(ptr %.2) #12
  invoke void @_ZN7doctest6detail13ResultBuilder18translateExceptionEv(ptr noundef nonnull align 8 dereferenceable(144) %3)
          to label %29 unwind label %34

29:                                               ; preds = %27
  invoke void @__cxa_end_catch()
          to label %30 unwind label %36

30:                                               ; preds = %29, %15
  %31 = invoke noundef zeroext i1 @_ZN7doctest6detail13ResultBuilder3logEv(ptr noundef nonnull align 8 dereferenceable(144) %3)
          to label %32 unwind label %36

32:                                               ; preds = %30
  br i1 %31, label %33, label %38

33:                                               ; preds = %32
  call void asm sideeffect "int $$3\0A", "~{dirflag},~{fpsr},~{flags}"() #12, !srcloc !38
  br label %38

34:                                               ; preds = %27
  %35 = landingpad { ptr, i32 }
          cleanup
  invoke void @__cxa_end_catch()
          to label %43 unwind label %45

36:                                               ; preds = %38, %30, %29
  %37 = landingpad { ptr, i32 }
          cleanup
  br label %43

38:                                               ; preds = %33, %32
  invoke void @_ZNK7doctest6detail13ResultBuilder5reactEv(ptr noundef nonnull align 8 dereferenceable(144) %3)
          to label %39 unwind label %36

39:                                               ; preds = %38
  %40 = getelementptr inbounds i8, ptr %3, i64 112
  call void @_ZN7doctest6StringD1Ev(ptr noundef nonnull align 8 dereferenceable(24) %40) #12
  %41 = getelementptr inbounds i8, ptr %3, i64 72
  call void @_ZN7doctest6StringD1Ev(ptr noundef nonnull align 8 dereferenceable(24) %41) #12
  %42 = getelementptr inbounds i8, ptr %3, i64 48
  call void @_ZN7doctest6StringD1Ev(ptr noundef nonnull align 8 dereferenceable(24) %42) #12
  ret void

43:                                               ; preds = %34, %36
  %.pn4 = phi { ptr, i32 } [ %37, %36 ], [ %35, %34 ]
  call void @_ZN7doctest6detail13ResultBuilderD2Ev(ptr noundef nonnull align 8 dereferenceable(144) %3) #12
  br label %44

44:                                               ; preds = %43, %17
  %.pn4.pn = phi { ptr, i32 } [ %.pn4, %43 ], [ %18, %17 ]
  resume { ptr, i32 } %.pn4.pn

45:                                               ; preds = %34
  %46 = landingpad { ptr, i32 }
          catch ptr null
  %47 = extractvalue { ptr, i32 } %46, 0
  call void @__clang_call_terminate(ptr %47) #13
  unreachable
}